target datalayout = "e-m:e-p270:32:32-p271:32:32-p272:64:64-i64:64-i128:128-f80:128-n8:16:32:64-S128"
target triple = "x86_64-pc-linux-gnu"

%struct.builtin_binary = type { ptr, ptr, i64 }
%struct.rb_vm_struct = type { i64, %struct.anon.5, ptr, i64, %struct.ccan_list_head, i32, i8, i64, ptr, [5 x i64], i64, i64, i64, i64, i64, i64, i64, i64, i64, ptr, ptr, ptr, %struct.anon.9, ptr, i32, %struct.ccan_list_head, %union.pthread_mutex_t, i64, i64, i64, i64, i32, %struct.anon.10, ptr, ptr, ptr, ptr, ptr, ptr, ptr, ptr, i64, [1023 x ptr], %struct.anon.11 }
%struct.anon.5 = type { %struct.ccan_list_head, i32, i32, ptr, ptr, %struct.anon.6, %struct.anon.8 }
%struct.anon.6 = type { %union.pthread_mutex_t, ptr, i32, %union.pthread_cond_t, i8 }
%union.pthread_cond_t = type { %struct.__pthread_cond_s }
%struct.__pthread_cond_s = type { %union.__atomic_wide_counter, %union.__atomic_wide_counter, [2 x i32], [2 x i32], i32, i32, [2 x i32] }
%union.__atomic_wide_counter = type { i64 }
%struct.anon.8 = type { %union.pthread_mutex_t, ptr, i8, %union.pthread_cond_t, i32, i32, i32, i32, %struct.ccan_list_head, i32, %struct.ccan_list_head, %struct.ccan_list_head, %struct.ccan_list_head, i8, %union.pthread_cond_t, %union.pthread_cond_t, i8, i32, i32 }
%struct.anon.9 = type { [65 x i64] }
%struct.ccan_list_head = type { %struct.ccan_list_node }
%struct.ccan_list_node = type { ptr, ptr }
%union.pthread_mutex_t = type { %struct.__pthread_mutex_s }
%struct.__pthread_mutex_s = type { i32, i32, i32, i32, i32, i16, i16, %struct.__pthread_internal_list }
%struct.__pthread_internal_list = type { ptr, ptr }
%struct.anon.10 = type { ptr, ptr }
%struct.anon.11 = type { i64, i64, i64, i64 }

@.str = private unnamed_addr constant [32 x i8] c"builtin_lookup: can not find %s\00", align 1
@.str.1 = private unnamed_addr constant [43 x i8] c"vm->builtin_function_table should be NULL.\00", align 1
@builtin_lookup.index = internal global i32 0, align 4
@ruby_current_vm_ptr = external global ptr, align 8

; Function Attrs: nounwind sspstrong uwtable
define internal ptr @bin4feature(ptr noundef %0, ptr noundef %1, ptr noundef %2) #0 {
  %4 = alloca ptr, align 8
  %5 = alloca ptr, align 8
  %6 = alloca ptr, align 8
  store ptr %0, ptr %4, align 8, !tbaa !46
  store ptr %1, ptr %5, align 8, !tbaa !7
  store ptr %2, ptr %6, align 8, !tbaa !43
  %7 = load ptr, ptr %4, align 8, !tbaa !46
  %8 = getelementptr inbounds nuw %struct.builtin_binary, ptr %7, i32 0, i32 2
  %9 = load i64, ptr %8, align 8, !tbaa !52
  %10 = load ptr, ptr %6, align 8, !tbaa !43
  store i64 %9, ptr %10, align 8, !tbaa !40
  %11 = load ptr, ptr %4, align 8, !tbaa !46
  %12 = getelementptr inbounds nuw %struct.builtin_binary, ptr %11, i32 0, i32 0
  %13 = load ptr, ptr %12, align 8, !tbaa !48
  %14 = load ptr, ptr %5, align 8, !tbaa !7
  %15 = call i32 @strcmp(ptr noundef %13, ptr noundef %14) #9
  %16 = icmp ne i32 %15, 0
  br i1 %16, label %17, label %18

17:                                               ; preds = %3
  br label %22

18:                                               ; preds = %3
  %19 = load ptr, ptr %4, align 8, !tbaa !46
  %20 = getelementptr inbounds nuw %struct.builtin_binary, ptr %19, i32 0, i32 1
  %21 = load ptr, ptr %20, align 8, !tbaa !53
  br label %22

22:                                               ; preds = %18, %17
  %23 = phi ptr [ null, %17 ], [ %21, %18 ]
  ret ptr %23
}

; Function Attrs: inlinehint nounwind sspstrong uwtable
define internal ptr @rb_iseq_check(ptr noundef %0) #3 {
  %2 = alloca ptr, align 8
  store ptr %0, ptr %2, align 8, !tbaa !41
  %3 = load ptr, ptr %2, align 8, !tbaa !41
  ret ptr %3
}

; Function Attrs: inlinehint nounwind sspstrong uwtable
define internal ptr @rb_current_vm() #3 {
  %1 = load ptr, ptr @ruby_current_vm_ptr, align 8, !tbaa !14
  ret ptr %1
}

; Function Attrs: nounwind sspstrong uwtable
define internal ptr @builtin_lookup(ptr noundef %0, ptr noundef %1) #0 {
  %3 = alloca ptr, align 8
  %4 = alloca ptr, align 8
  %5 = alloca ptr, align 8
  %6 = alloca ptr, align 8
  store ptr %0, ptr %3, align 8, !tbaa !7
  store ptr %1, ptr %4, align 8, !tbaa !43
  call void @llvm.lifetime.start.p0(i64 8, ptr %5) #7
  %7 = load i32, ptr @builtin_lookup.index, align 4, !tbaa !45
  %8 = add i32 %7, 1
  store i32 %8, ptr @builtin_lookup.index, align 4, !tbaa !45
  %9 = sext i32 %7 to i64
  %10 = getelementptr [22 x %struct.builtin_binary], ptr @builtin_binary, i64 0, i64 %9
  %11 = load ptr, ptr %3, align 8, !tbaa !7
  %12 = load ptr, ptr %4, align 8, !tbaa !43
  %13 = call ptr @bin4feature(ptr noundef %10, ptr noundef %11, ptr noundef %12)
  store ptr %13, ptr %5, align 8, !tbaa !7
  call void @llvm.lifetime.start.p0(i64 8, ptr %6) #7
  store ptr @builtin_binary, ptr %6, align 8, !tbaa !46
  br label %14

14:                                               ; preds = %32, %2
  %15 = load ptr, ptr %6, align 8, !tbaa !46
  %16 = getelementptr inbounds nuw %struct.builtin_binary, ptr %15, i32 0, i32 0
  %17 = load ptr, ptr %16, align 8, !tbaa !48
  %18 = icmp ne ptr %17, null
  br i1 %18, label %19, label %23

19:                                               ; preds = %14
  %20 = load ptr, ptr %5, align 8, !tbaa !7
  %21 = icmp ne ptr %20, null
  %22 = xor i1 %21, true
  br label %23

23:                                               ; preds = %19, %14
  %24 = phi i1 [ false, %14 ], [ %22, %19 ]
  br i1 %24, label %26, label %25

25:                                               ; preds = %23
  call void @llvm.lifetime.end.p0(i64 8, ptr %6) #7
  br label %35

26:                                               ; preds = %23
  %27 = load ptr, ptr %6, align 8, !tbaa !46
  %28 = getelementptr %struct.builtin_binary, ptr %27, i32 1
  store ptr %28, ptr %6, align 8, !tbaa !46
  %29 = load ptr, ptr %3, align 8, !tbaa !7
  %30 = load ptr, ptr %4, align 8, !tbaa !43
  %31 = call ptr @bin4feature(ptr noundef %27, ptr noundef %29, ptr noundef %30)
  store ptr %31, ptr %5, align 8, !tbaa !7
  br label %32

32:                                               ; preds = %26
  %33 = load ptr, ptr %6, align 8, !tbaa !46
  %34 = getelementptr %struct.builtin_binary, ptr %33, i32 1
  store ptr %34, ptr %6, align 8, !tbaa !46
  br label %14, !llvm.loop !50

35:                                               ; preds = %25
  %36 = load ptr, ptr %5, align 8, !tbaa !7
  call void @llvm.lifetime.end.p0(i64 8, ptr %5) #7
  ret ptr %36
}

; Function Attrs: nounwind sspstrong uwtable
define hidden void @rb_load_with_builtin_functions(ptr noundef %0, ptr noundef %1) #0 {
  %3 = alloca ptr, align 8
  %4 = alloca ptr, align 8
  %5 = alloca i64, align 8
  %6 = alloca ptr, align 8
  %7 = alloca ptr, align 8
  %8 = alloca ptr, align 8
  store ptr %0, ptr %3, align 8, !tbaa !7
  store ptr %1, ptr %4, align 8, !tbaa !12
  call void @llvm.lifetime.start.p0(i64 8, ptr %5) #7
  call void @llvm.lifetime.start.p0(i64 8, ptr %6) #7
  %9 = load ptr, ptr %3, align 8, !tbaa !7
  %10 = call ptr @builtin_lookup(ptr noundef %9, ptr noundef %5)
  store ptr %10, ptr %6, align 8, !tbaa !7
  %11 = load ptr, ptr %6, align 8, !tbaa !7
  %12 = icmp ne ptr %11, null
  br i1 %12, label %15, label %13

13:                                               ; preds = %2
  %14 = load ptr, ptr %3, align 8, !tbaa !7
  call void (ptr, ...) @rb_bug(ptr noundef @.str, ptr noundef %14) #8
  unreachable

15:                                               ; preds = %2
  call void @llvm.lifetime.start.p0(i64 8, ptr %7) #7
  %16 = call ptr @rb_current_vm()
  store ptr %16, ptr %7, align 8, !tbaa !14
  %17 = load ptr, ptr %7, align 8, !tbaa !14
  %18 = getelementptr inbounds nuw %struct.rb_vm_struct, ptr %17, i32 0, i32 35
  %19 = load ptr, ptr %18, align 8, !tbaa !16
  %20 = icmp ne ptr %19, null
  br i1 %20, label %21, label %22

21:                                               ; preds = %15
  call void (ptr, ...) @rb_bug(ptr noundef @.str.1) #8
  unreachable

22:                                               ; preds = %15
  %23 = load ptr, ptr %4, align 8, !tbaa !12
  %24 = load ptr, ptr %7, align 8, !tbaa !14
  %25 = getelementptr inbounds nuw %struct.rb_vm_struct, ptr %24, i32 0, i32 35
  store ptr %23, ptr %25, align 8, !tbaa !16
  call void @llvm.lifetime.start.p0(i64 8, ptr %8) #7
  %26 = load ptr, ptr %6, align 8, !tbaa !7
  %27 = load i64, ptr %5, align 8, !tbaa !40
  %28 = call ptr @rb_iseq_ibf_load_bytes(ptr noundef %26, i64 noundef %27)
  store ptr %28, ptr %8, align 8, !tbaa !41
  %29 = load ptr, ptr %8, align 8, !tbaa !41
  %30 = icmp ne ptr %29, null
  call void @llvm.assume(i1 %30)
  %31 = load ptr, ptr %7, align 8, !tbaa !14
  %32 = getelementptr inbounds nuw %struct.rb_vm_struct, ptr %31, i32 0, i32 35
  store ptr null, ptr %32, align 8, !tbaa !16
  %33 = load ptr, ptr %8, align 8, !tbaa !41
  %34 = call ptr @rb_iseq_check(ptr noundef %33)
  %35 = call i64 @rb_iseq_eval(ptr noundef %34)
  call void @llvm.lifetime.end.p0(i64 8, ptr %8) #7
  call void @llvm.lifetime.end.p0(i64 8, ptr %7) #7
  call void @llvm.lifetime.end.p0(i64 8, ptr %6) #7
  call void @llvm.lifetime.end.p0(i64 8, ptr %5) #7
  ret void
}