; Function Attrs: nounwind sspstrong uwtable
define hidden void @rb_load_with_builtin_functions(ptr noundef %0, ptr noundef %1) local_unnamed_addr #0 {
  %3 = load i32, ptr @builtin_lookup.index, align 4, !tbaa !7
  %4 = add i32 %3, 1
  store i32 %4, ptr @builtin_lookup.index, align 4, !tbaa !7
  %5 = sext i32 %3 to i64
  %6 = getelementptr [22 x %struct.builtin_binary], ptr @builtin_binary, i64 0, i64 %5
  %7 = load ptr, ptr %6, align 8, !tbaa !11
  %8 = tail call i32 @strcmp(ptr noundef nonnull dereferenceable(1) %7, ptr noundef nonnull readonly dereferenceable(1) %0) #6
  %.not.i.i = icmp eq i32 %8, 0
  br i1 %.not.i.i, label %bin4feature.exit.i, label %.lr.ph.i.preheader

bin4feature.exit.i:                               ; preds = %2
  %9 = getelementptr inbounds nuw i8, ptr %6, i64 8
  %10 = load ptr, ptr %9, align 8, !tbaa !16
  %.not12.i = icmp eq ptr %10, null
  br i1 %.not12.i, label %.lr.ph.i.preheader, label %builtin_lookup.exit.thread

.lr.ph.i.preheader:                               ; preds = %bin4feature.exit.i, %2
  br label %.lr.ph.i

.lr.ph.i:                                         ; preds = %.lr.ph.i.preheader, %bin4feature.exit11.i
  %11 = phi ptr [ %18, %bin4feature.exit11.i ], [ @.str.3, %.lr.ph.i.preheader ]
  %.013.i = phi ptr [ %17, %bin4feature.exit11.i ], [ @builtin_binary, %.lr.ph.i.preheader ]
  %12 = tail call i32 @strcmp(ptr noundef nonnull dereferenceable(1) %11, ptr noundef nonnull readonly dereferenceable(1) %0) #6
  %.not.i10.i = icmp eq i32 %12, 0
  br i1 %.not.i10.i, label %13, label %bin4feature.exit11.i

13:                                               ; preds = %.lr.ph.i
  %14 = getelementptr inbounds nuw i8, ptr %.013.i, i64 8
  %15 = load ptr, ptr %14, align 8, !tbaa !16
  br label %bin4feature.exit11.i

bin4feature.exit11.i:                             ; preds = %13, %.lr.ph.i
  %16 = phi ptr [ %15, %13 ], [ null, %.lr.ph.i ]
  %17 = getelementptr i8, ptr %.013.i, i64 48
  %18 = load ptr, ptr %17, align 8, !tbaa !11
  %19 = icmp ne ptr %18, null
  %.not.i = icmp eq ptr %16, null
  %20 = select i1 %19, i1 %.not.i, i1 false
  br i1 %20, label %.lr.ph.i, label %builtin_lookup.exit, !llvm.loop !17

builtin_lookup.exit:                              ; preds = %bin4feature.exit11.i
  br i1 %.not.i, label %21, label %builtin_lookup.exit.thread

21:                                               ; preds = %builtin_lookup.exit
  tail call void (ptr, ...) @rb_bug(ptr noundef nonnull @.str, ptr noundef nonnull %0) #7
  unreachable

builtin_lookup.exit.thread:                       ; preds = %bin4feature.exit.i, %builtin_lookup.exit
  %.09.lcssa.i15 = phi ptr [ %16, %builtin_lookup.exit ], [ %10, %bin4feature.exit.i ]
  %.013.i.pn = phi ptr [ %.013.i, %builtin_lookup.exit ], [ %6, %bin4feature.exit.i ]
  %22 = load ptr, ptr @ruby_current_vm_ptr, align 8, !tbaa !19
  %23 = getelementptr inbounds nuw i8, ptr %22, i64 1328
  %24 = load ptr, ptr %23, align 8, !tbaa !21
  %.not10 = icmp eq ptr %24, null
  br i1 %.not10, label %26, label %25

25:                                               ; preds = %builtin_lookup.exit.thread
  tail call void (ptr, ...) @rb_bug(ptr noundef nonnull @.str.1) #7
  unreachable

26:                                               ; preds = %builtin_lookup.exit.thread
  %.014.in = getelementptr inbounds nuw i8, ptr %.013.i.pn, i64 16
  %.014 = load i64, ptr %.014.in, align 8, !tbaa !44
  store ptr %1, ptr %23, align 8, !tbaa !21
  %27 = tail call ptr @rb_iseq_ibf_load_bytes(ptr noundef nonnull %.09.lcssa.i15, i64 noundef %.014) #8
  %28 = icmp ne ptr %27, null
  tail call void @llvm.assume(i1 %28)
  store ptr null, ptr %23, align 8, !tbaa !21
  %29 = tail call i64 @rb_iseq_eval(ptr noundef nonnull %27) #8
  ret void
}